target datalayout = "e-m:e-p270:32:32-p271:32:32-p272:64:64-i64:64-i128:128-f80:128-n8:16:32:64-S128"
target triple = "x86_64-unknown-linux-gnu"

%"class.QuantLib::EscrowedDividendAdjustment" = type { %"class.std::vector", %"class.QuantLib::Handle", %"class.QuantLib::Handle", %"class.std::function", double }
%"class.std::vector" = type { %"struct.std::_Vector_base" }
%"struct.std::_Vector_base" = type { %"struct.std::_Vector_base<boost::shared_ptr<QuantLib::Dividend>, std::allocator<boost::shared_ptr<QuantLib::Dividend>>>::_Vector_impl" }
%"struct.std::_Vector_base<boost::shared_ptr<QuantLib::Dividend>, std::allocator<boost::shared_ptr<QuantLib::Dividend>>>::_Vector_impl" = type { %"struct.std::_Vector_base<boost::shared_ptr<QuantLib::Dividend>, std::allocator<boost::shared_ptr<QuantLib::Dividend>>>::_Vector_impl_data" }
%"struct.std::_Vector_base<boost::shared_ptr<QuantLib::Dividend>, std::allocator<boost::shared_ptr<QuantLib::Dividend>>>::_Vector_impl_data" = type { ptr, ptr, ptr }
%"class.QuantLib::Handle" = type { %"class.boost::shared_ptr.11" }
%"class.boost::shared_ptr.11" = type { ptr, %"class.boost::detail::shared_count" }
%"class.boost::detail::shared_count" = type { ptr }
%"class.std::function" = type { %"class.std::_Function_base", ptr }
%"class.std::_Function_base" = type { %"union.std::_Any_data", ptr }
%"union.std::_Any_data" = type { %"union.std::_Nocopy_types" }
%"union.std::_Nocopy_types" = type { { i64, i64 } }

; Function Attrs: mustprogress nounwind uwtable
define linkonce_odr void @_ZNSt15__new_allocatorIN5boost10shared_ptrIN8QuantLib8DividendEEEEC2ERKS5_(ptr noundef nonnull align 1 dereferenceable(1) %this, ptr noundef nonnull align 1 dereferenceable(1) %0) unnamed_addr #3 comdat align 2 {
entry:
  %this.addr = alloca ptr, align 8
  %.addr = alloca ptr, align 8
  store ptr %this, ptr %this.addr, align 8, !tbaa !3
  store ptr %0, ptr %.addr, align 8, !tbaa !3
  ret void
}

; Function Attrs: mustprogress nounwind uwtable
define linkonce_odr void @_ZNSt12_Vector_baseIN5boost10shared_ptrIN8QuantLib8DividendEEESaIS4_EE17_Vector_impl_dataC2EOS7_(ptr noundef nonnull align 8 dereferenceable(24) %this, ptr noundef nonnull align 8 dereferenceable(24) %__x) unnamed_addr #3 comdat align 2 {
entry:
  %this.addr = alloca ptr, align 8
  %__x.addr = alloca ptr, align 8
  store ptr %this, ptr %this.addr, align 8, !tbaa !3
  store ptr %__x, ptr %__x.addr, align 8, !tbaa !3
  %this1 = load ptr, ptr %this.addr, align 8
  %_M_start = getelementptr inbounds nuw %"struct.std::_Vector_base<boost::shared_ptr<QuantLib::Dividend>, std::allocator<boost::shared_ptr<QuantLib::Dividend>>>::_Vector_impl_data", ptr %this1, i32 0, i32 0
  %0 = load ptr, ptr %__x.addr, align 8, !tbaa !3
  %_M_start2 = getelementptr inbounds nuw %"struct.std::_Vector_base<boost::shared_ptr<QuantLib::Dividend>, std::allocator<boost::shared_ptr<QuantLib::Dividend>>>::_Vector_impl_data", ptr %0, i32 0, i32 0
  %1 = load ptr, ptr %_M_start2, align 8, !tbaa !35
  store ptr %1, ptr %_M_start, align 8, !tbaa !35
  %_M_finish = getelementptr inbounds nuw %"struct.std::_Vector_base<boost::shared_ptr<QuantLib::Dividend>, std::allocator<boost::shared_ptr<QuantLib::Dividend>>>::_Vector_impl_data", ptr %this1, i32 0, i32 1
  %2 = load ptr, ptr %__x.addr, align 8, !tbaa !3
  %_M_finish3 = getelementptr inbounds nuw %"struct.std::_Vector_base<boost::shared_ptr<QuantLib::Dividend>, std::allocator<boost::shared_ptr<QuantLib::Dividend>>>::_Vector_impl_data", ptr %2, i32 0, i32 1
  %3 = load ptr, ptr %_M_finish3, align 8, !tbaa !36
  store ptr %3, ptr %_M_finish, align 8, !tbaa !36
  %_M_end_of_storage = getelementptr inbounds nuw %"struct.std::_Vector_base<boost::shared_ptr<QuantLib::Dividend>, std::allocator<boost::shared_ptr<QuantLib::Dividend>>>::_Vector_impl_data", ptr %this1, i32 0, i32 2
  %4 = load ptr, ptr %__x.addr, align 8, !tbaa !3
  %_M_end_of_storage4 = getelementptr inbounds nuw %"struct.std::_Vector_base<boost::shared_ptr<QuantLib::Dividend>, std::allocator<boost::shared_ptr<QuantLib::Dividend>>>::_Vector_impl_data", ptr %4, i32 0, i32 2
  %5 = load ptr, ptr %_M_end_of_storage4, align 8, !tbaa !37
  store ptr %5, ptr %_M_end_of_storage, align 8, !tbaa !37
  %6 = load ptr, ptr %__x.addr, align 8, !tbaa !3
  %_M_end_of_storage5 = getelementptr inbounds nuw %"struct.std::_Vector_base<boost::shared_ptr<QuantLib::Dividend>, std::allocator<boost::shared_ptr<QuantLib::Dividend>>>::_Vector_impl_data", ptr %6, i32 0, i32 2
  store ptr null, ptr %_M_end_of_storage5, align 8, !tbaa !37
  %7 = load ptr, ptr %__x.addr, align 8, !tbaa !3
  %_M_finish6 = getelementptr inbounds nuw %"struct.std::_Vector_base<boost::shared_ptr<QuantLib::Dividend>, std::allocator<boost::shared_ptr<QuantLib::Dividend>>>::_Vector_impl_data", ptr %7, i32 0, i32 1
  store ptr null, ptr %_M_finish6, align 8, !tbaa !36
  %8 = load ptr, ptr %__x.addr, align 8, !tbaa !3
  %_M_start7 = getelementptr inbounds nuw %"struct.std::_Vector_base<boost::shared_ptr<QuantLib::Dividend>, std::allocator<boost::shared_ptr<QuantLib::Dividend>>>::_Vector_impl_data", ptr %8, i32 0, i32 0
  store ptr null, ptr %_M_start7, align 8, !tbaa !35
  ret void
}

; Function Attrs: mustprogress nounwind uwtable
define linkonce_odr void @_ZNSaIN5boost10shared_ptrIN8QuantLib8DividendEEEEC2ERKS4_(ptr noundef nonnull align 1 dereferenceable(1) %this, ptr noundef nonnull align 1 dereferenceable(1) %__a) unnamed_addr #3 comdat align 2 {
entry:
  %this.addr = alloca ptr, align 8
  %__a.addr = alloca ptr, align 8
  store ptr %this, ptr %this.addr, align 8, !tbaa !3
  store ptr %__a, ptr %__a.addr, align 8, !tbaa !3
  %this1 = load ptr, ptr %this.addr, align 8
  %0 = load ptr, ptr %__a.addr, align 8, !tbaa !3
  call void @_ZNSt15__new_allocatorIN5boost10shared_ptrIN8QuantLib8DividendEEEEC2ERKS5_(ptr noundef nonnull align 1 dereferenceable(1) %this1, ptr noundef nonnull align 1 dereferenceable(1) %0) #15
  ret void
}

; Function Attrs: noinline noreturn nounwind uwtable
define linkonce_odr hidden void @__clang_call_terminate(ptr noundef %0) #1 comdat {
  %2 = call ptr @__cxa_begin_catch(ptr %0) #15
  call void @_ZSt9terminatev() #16
  unreachable
}

; Function Attrs: mustprogress nounwind uwtable
define linkonce_odr noundef zeroext i1 @_ZNKSt14_Function_base8_M_emptyEv(ptr noundef nonnull align 8 dereferenceable(24) %this) #3 comdat align 2 {
entry:
  %this.addr = alloca ptr, align 8
  store ptr %this, ptr %this.addr, align 8, !tbaa !3
  %this1 = load ptr, ptr %this.addr, align 8
  %_M_manager = getelementptr inbounds nuw %"class.std::_Function_base", ptr %this1, i32 0, i32 1
  %0 = load ptr, ptr %_M_manager, align 8, !tbaa !23
  %tobool = icmp ne ptr %0, null
  %lnot = xor i1 %tobool, true
  ret i1 %lnot
}

; Function Attrs: mustprogress nounwind uwtable
define linkonce_odr void @_ZN5boost6detail12shared_countC2EOS1_(ptr noundef nonnull align 8 dereferenceable(8) %this, ptr noundef nonnull align 8 dereferenceable(8) %r) unnamed_addr #3 comdat align 2 {
entry:
  %this.addr = alloca ptr, align 8
  %r.addr = alloca ptr, align 8
  store ptr %this, ptr %this.addr, align 8, !tbaa !3
  store ptr %r, ptr %r.addr, align 8, !tbaa !3
  %this1 = load ptr, ptr %this.addr, align 8
  %pi_ = getelementptr inbounds nuw %"class.boost::detail::shared_count", ptr %this1, i32 0, i32 0
  %0 = load ptr, ptr %r.addr, align 8, !tbaa !3
  %pi_2 = getelementptr inbounds nuw %"class.boost::detail::shared_count", ptr %0, i32 0, i32 0
  %1 = load ptr, ptr %pi_2, align 8, !tbaa !32
  store ptr %1, ptr %pi_, align 8, !tbaa !32
  %2 = load ptr, ptr %r.addr, align 8, !tbaa !3
  %pi_3 = getelementptr inbounds nuw %"class.boost::detail::shared_count", ptr %2, i32 0, i32 0
  store ptr null, ptr %pi_3, align 8, !tbaa !32
  ret void
}

; Function Attrs: mustprogress nounwind uwtable
define linkonce_odr void @_ZNSt12_Vector_baseIN5boost10shared_ptrIN8QuantLib8DividendEEESaIS4_EE12_Vector_implC2EOS7_(ptr noundef nonnull align 8 dereferenceable(24) %this, ptr noundef nonnull align 8 dereferenceable(24) %__x) unnamed_addr #3 comdat align 2 {
entry:
  %this.addr = alloca ptr, align 8
  %__x.addr = alloca ptr, align 8
  store ptr %this, ptr %this.addr, align 8, !tbaa !3
  store ptr %__x, ptr %__x.addr, align 8, !tbaa !3
  %this1 = load ptr, ptr %this.addr, align 8
  %0 = load ptr, ptr %__x.addr, align 8, !tbaa !3
  call void @_ZNSaIN5boost10shared_ptrIN8QuantLib8DividendEEEEC2ERKS4_(ptr noundef nonnull align 1 dereferenceable(1) %this1, ptr noundef nonnull align 1 dereferenceable(1) %0) #15
  %1 = load ptr, ptr %__x.addr, align 8, !tbaa !3
  call void @_ZNSt12_Vector_baseIN5boost10shared_ptrIN8QuantLib8DividendEEESaIS4_EE17_Vector_impl_dataC2EOS7_(ptr noundef nonnull align 8 dereferenceable(24) %this1, ptr noundef nonnull align 8 dereferenceable(24) %1) #15
  ret void
}

; Function Attrs: mustprogress nounwind uwtable
define linkonce_odr noundef zeroext i1 @_ZNKSt8functionIFdN8QuantLib4DateEEEcvbEv(ptr noundef nonnull align 8 dereferenceable(32) %this) #3 comdat align 2 personality ptr @__gxx_personality_v0 {
entry:
  %this.addr = alloca ptr, align 8
  store ptr %this, ptr %this.addr, align 8, !tbaa !3
  %this1 = load ptr, ptr %this.addr, align 8
  %call = invoke noundef zeroext i1 @_ZNKSt14_Function_base8_M_emptyEv(ptr noundef nonnull align 8 dereferenceable(24) %this1)
          to label %invoke.cont unwind label %terminate.lpad

invoke.cont:                                      ; preds = %entry
  %lnot = xor i1 %call, true
  ret i1 %lnot

terminate.lpad:                                   ; preds = %entry
  %0 = landingpad { ptr, i32 }
          catch ptr null
  %1 = extractvalue { ptr, i32 } %0, 0
  call void @__clang_call_terminate(ptr %1) #16
  unreachable
}

; Function Attrs: mustprogress nounwind uwtable
define linkonce_odr void @_ZNSt14_Function_baseC2Ev(ptr noundef nonnull align 8 dereferenceable(24) %this) unnamed_addr #3 comdat align 2 {
entry:
  %this.addr = alloca ptr, align 8
  store ptr %this, ptr %this.addr, align 8, !tbaa !3
  %this1 = load ptr, ptr %this.addr, align 8
  %_M_functor = getelementptr inbounds nuw %"class.std::_Function_base", ptr %this1, i32 0, i32 0
  store ptr null, ptr %_M_functor, align 8, !tbaa !22
  %_M_manager = getelementptr inbounds nuw %"class.std::_Function_base", ptr %this1, i32 0, i32 1
  store ptr null, ptr %_M_manager, align 8, !tbaa !23
  ret void
}

; Function Attrs: mustprogress nounwind uwtable
define linkonce_odr void @_ZN5boost10shared_ptrIN8QuantLib6HandleINS1_18YieldTermStructureEE4LinkEEC2EOS6_(ptr noundef nonnull align 8 dereferenceable(16) %this, ptr noundef nonnull align 8 dereferenceable(16) %r) unnamed_addr #3 comdat align 2 {
entry:
  %this.addr = alloca ptr, align 8
  %r.addr = alloca ptr, align 8
  store ptr %this, ptr %this.addr, align 8, !tbaa !3
  store ptr %r, ptr %r.addr, align 8, !tbaa !3
  %this1 = load ptr, ptr %this.addr, align 8
  %px = getelementptr inbounds nuw %"class.boost::shared_ptr.11", ptr %this1, i32 0, i32 0
  %0 = load ptr, ptr %r.addr, align 8, !tbaa !3
  %px2 = getelementptr inbounds nuw %"class.boost::shared_ptr.11", ptr %0, i32 0, i32 0
  %1 = load ptr, ptr %px2, align 8, !tbaa !38
  store ptr %1, ptr %px, align 8, !tbaa !38
  %pn = getelementptr inbounds nuw %"class.boost::shared_ptr.11", ptr %this1, i32 0, i32 1
  %2 = load ptr, ptr %r.addr, align 8, !tbaa !3
  %pn3 = getelementptr inbounds nuw %"class.boost::shared_ptr.11", ptr %2, i32 0, i32 1
  call void @_ZN5boost6detail12shared_countC2EOS1_(ptr noundef nonnull align 8 dereferenceable(8) %pn, ptr noundef nonnull align 8 dereferenceable(8) %pn3) #15
  %3 = load ptr, ptr %r.addr, align 8, !tbaa !3
  %px4 = getelementptr inbounds nuw %"class.boost::shared_ptr.11", ptr %3, i32 0, i32 0
  store ptr null, ptr %px4, align 8, !tbaa !38
  ret void
}

; Function Attrs: mustprogress nounwind uwtable
define linkonce_odr void @_ZNSt12_Vector_baseIN5boost10shared_ptrIN8QuantLib8DividendEEESaIS4_EEC2EOS6_(ptr noundef nonnull align 8 dereferenceable(24) %this, ptr noundef nonnull align 8 dereferenceable(24) %0) unnamed_addr #3 comdat align 2 {
entry:
  %this.addr = alloca ptr, align 8
  %.addr = alloca ptr, align 8
  store ptr %this, ptr %this.addr, align 8, !tbaa !3
  store ptr %0, ptr %.addr, align 8, !tbaa !3
  %this1 = load ptr, ptr %this.addr, align 8
  %_M_impl = getelementptr inbounds nuw %"struct.std::_Vector_base", ptr %this1, i32 0, i32 0
  %1 = load ptr, ptr %.addr, align 8, !tbaa !3
  %_M_impl2 = getelementptr inbounds nuw %"struct.std::_Vector_base", ptr %1, i32 0, i32 0
  call void @_ZNSt12_Vector_baseIN5boost10shared_ptrIN8QuantLib8DividendEEESaIS4_EE12_Vector_implC2EOS7_(ptr noundef nonnull align 8 dereferenceable(24) %_M_impl, ptr noundef nonnull align 8 dereferenceable(24) %_M_impl2) #15
  ret void
}

; Function Attrs: mustprogress nounwind uwtable
define linkonce_odr void @_ZNSt8functionIFdN8QuantLib4DateEEEC2EOS3_(ptr noundef nonnull align 8 dereferenceable(32) %this, ptr noundef nonnull align 8 dereferenceable(32) %__x) unnamed_addr #3 comdat align 2 {
entry:
  %this.addr = alloca ptr, align 8
  %__x.addr = alloca ptr, align 8
  store ptr %this, ptr %this.addr, align 8, !tbaa !3
  store ptr %__x, ptr %__x.addr, align 8, !tbaa !3
  %this1 = load ptr, ptr %this.addr, align 8
  %0 = getelementptr inbounds i8, ptr %this1, i64 0
  call void @llvm.memset.p0.i64(ptr align 8 %0, i8 0, i64 24, i1 false)
  call void @_ZNSt14_Function_baseC2Ev(ptr noundef nonnull align 8 dereferenceable(24) %this1) #15
  %_M_invoker = getelementptr inbounds nuw %"class.std::function", ptr %this1, i32 0, i32 1
  %1 = load ptr, ptr %__x.addr, align 8, !tbaa !3
  %_M_invoker2 = getelementptr inbounds nuw %"class.std::function", ptr %1, i32 0, i32 1
  %2 = load ptr, ptr %_M_invoker2, align 8, !tbaa !20
  store ptr %2, ptr %_M_invoker, align 8, !tbaa !20
  %3 = load ptr, ptr %__x.addr, align 8, !tbaa !3
  %call = call noundef zeroext i1 @_ZNKSt8functionIFdN8QuantLib4DateEEEcvbEv(ptr noundef nonnull align 8 dereferenceable(32) %3) #15
  br i1 %call, label %if.then, label %if.end

if.then:                                          ; preds = %entry
  %4 = load ptr, ptr %__x.addr, align 8, !tbaa !3
  %_M_functor = getelementptr inbounds nuw %"class.std::_Function_base", ptr %4, i32 0, i32 0
  %_M_functor3 = getelementptr inbounds nuw %"class.std::_Function_base", ptr %this1, i32 0, i32 0
  call void @llvm.memcpy.p0.p0.i64(ptr align 8 %_M_functor3, ptr align 8 %_M_functor, i64 16, i1 false), !tbaa.struct !21
  %5 = load ptr, ptr %__x.addr, align 8, !tbaa !3
  %_M_manager = getelementptr inbounds nuw %"class.std::_Function_base", ptr %5, i32 0, i32 1
  %6 = load ptr, ptr %_M_manager, align 8, !tbaa !23
  %_M_manager4 = getelementptr inbounds nuw %"class.std::_Function_base", ptr %this1, i32 0, i32 1
  store ptr %6, ptr %_M_manager4, align 8, !tbaa !23
  %7 = load ptr, ptr %__x.addr, align 8, !tbaa !3
  %_M_manager5 = getelementptr inbounds nuw %"class.std::_Function_base", ptr %7, i32 0, i32 1
  store ptr null, ptr %_M_manager5, align 8, !tbaa !23
  %8 = load ptr, ptr %__x.addr, align 8, !tbaa !3
  %_M_invoker6 = getelementptr inbounds nuw %"class.std::function", ptr %8, i32 0, i32 1
  store ptr null, ptr %_M_invoker6, align 8, !tbaa !20
  br label %if.end

if.end:                                           ; preds = %if.then, %entry
  ret void
}

; Function Attrs: inlinehint mustprogress nounwind uwtable
define linkonce_odr void @_ZN8QuantLib6HandleINS_18YieldTermStructureEEC2EOS2_(ptr noundef nonnull align 8 dereferenceable(16) %this, ptr noundef nonnull align 8 dereferenceable(16) %0) unnamed_addr #4 comdat align 2 {
entry:
  %this.addr = alloca ptr, align 8
  %.addr = alloca ptr, align 8
  store ptr %this, ptr %this.addr, align 8, !tbaa !3
  store ptr %0, ptr %.addr, align 8, !tbaa !3
  %this1 = load ptr, ptr %this.addr, align 8
  %link_ = getelementptr inbounds nuw %"class.QuantLib::Handle", ptr %this1, i32 0, i32 0
  %1 = load ptr, ptr %.addr, align 8, !tbaa !3
  %link_2 = getelementptr inbounds nuw %"class.QuantLib::Handle", ptr %1, i32 0, i32 0
  call void @_ZN5boost10shared_ptrIN8QuantLib6HandleINS1_18YieldTermStructureEE4LinkEEC2EOS6_(ptr noundef nonnull align 8 dereferenceable(16) %link_, ptr noundef nonnull align 8 dereferenceable(16) %link_2) #15
  ret void
}

; Function Attrs: mustprogress nounwind uwtable
define linkonce_odr void @_ZNSt6vectorIN5boost10shared_ptrIN8QuantLib8DividendEEESaIS4_EEC2EOS6_(ptr noundef nonnull align 8 dereferenceable(24) %this, ptr noundef nonnull align 8 dereferenceable(24) %0) unnamed_addr #3 comdat align 2 {
entry:
  %this.addr = alloca ptr, align 8
  %.addr = alloca ptr, align 8
  store ptr %this, ptr %this.addr, align 8, !tbaa !3
  store ptr %0, ptr %.addr, align 8, !tbaa !3
  %this1 = load ptr, ptr %this.addr, align 8
  %1 = load ptr, ptr %.addr, align 8, !tbaa !3
  call void @_ZNSt12_Vector_baseIN5boost10shared_ptrIN8QuantLib8DividendEEESaIS4_EEC2EOS6_(ptr noundef nonnull align 8 dereferenceable(24) %this1, ptr noundef nonnull align 8 dereferenceable(24) %1) #15
  ret void
}

; Function Attrs: mustprogress nounwind uwtable
define void @_ZN8QuantLib26EscrowedDividendAdjustmentC2ESt6vectorIN5boost10shared_ptrINS_8DividendEEESaIS5_EENS_6HandleINS_18YieldTermStructureEEESA_St8functionIFdNS_4DateEEEd(ptr noundef nonnull align 8 dereferenceable(96) %this, ptr noundef %dividendSchedule, ptr noundef %rTS, ptr noundef %qTS, ptr noundef %toTime, double noundef %maturity) unnamed_addr #3 align 2 {
entry:
  %this.addr = alloca ptr, align 8
  %dividendSchedule.indirect_addr = alloca ptr, align 8
  %rTS.indirect_addr = alloca ptr, align 8
  %qTS.indirect_addr = alloca ptr, align 8
  %toTime.indirect_addr = alloca ptr, align 8
  %maturity.addr = alloca double, align 8
  store ptr %this, ptr %this.addr, align 8, !tbaa !3
  store ptr %dividendSchedule, ptr %dividendSchedule.indirect_addr, align 8, !tbaa !3
  store ptr %rTS, ptr %rTS.indirect_addr, align 8, !tbaa !3
  store ptr %qTS, ptr %qTS.indirect_addr, align 8, !tbaa !3
  store ptr %toTime, ptr %toTime.indirect_addr, align 8, !tbaa !3
  store double %maturity, ptr %maturity.addr, align 8, !tbaa !7
  %this1 = load ptr, ptr %this.addr, align 8
  %dividendSchedule_ = getelementptr inbounds nuw %"class.QuantLib::EscrowedDividendAdjustment", ptr %this1, i32 0, i32 0
  call void @_ZNSt6vectorIN5boost10shared_ptrIN8QuantLib8DividendEEESaIS4_EEC2EOS6_(ptr noundef nonnull align 8 dereferenceable(24) %dividendSchedule_, ptr noundef nonnull align 8 dereferenceable(24) %dividendSchedule) #15
  %rTS_ = getelementptr inbounds nuw %"class.QuantLib::EscrowedDividendAdjustment", ptr %this1, i32 0, i32 1
  call void @_ZN8QuantLib6HandleINS_18YieldTermStructureEEC2EOS2_(ptr noundef nonnull align 8 dereferenceable(16) %rTS_, ptr noundef nonnull align 8 dereferenceable(16) %rTS) #15
  %qTS_ = getelementptr inbounds nuw %"class.QuantLib::EscrowedDividendAdjustment", ptr %this1, i32 0, i32 2
  call void @_ZN8QuantLib6HandleINS_18YieldTermStructureEEC2EOS2_(ptr noundef nonnull align 8 dereferenceable(16) %qTS_, ptr noundef nonnull align 8 dereferenceable(16) %qTS) #15
  %toTime_ = getelementptr inbounds nuw %"class.QuantLib::EscrowedDividendAdjustment", ptr %this1, i32 0, i32 3
  call void @_ZNSt8functionIFdN8QuantLib4DateEEEC2EOS3_(ptr noundef nonnull align 8 dereferenceable(32) %toTime_, ptr noundef nonnull align 8 dereferenceable(32) %toTime) #15
  %maturity_ = getelementptr inbounds nuw %"class.QuantLib::EscrowedDividendAdjustment", ptr %this1, i32 0, i32 4
  %0 = load double, ptr %maturity.addr, align 8, !tbaa !7
  store double %0, ptr %maturity_, align 8, !tbaa !9
  ret void
}