; Function Attrs: mustprogress nofree norecurse nosync nounwind willreturn memory(argmem: readwrite) uwtable
define void @_ZN8QuantLib26EscrowedDividendAdjustmentC2ESt6vectorIN5boost10shared_ptrINS_8DividendEEESaIS5_EENS_6HandleINS_18YieldTermStructureEEESA_St8functionIFdNS_4DateEEEd(ptr nocapture noundef nonnull writeonly align 8 dereferenceable(96) %this, ptr nocapture noundef %dividendSchedule, ptr nocapture noundef %rTS, ptr nocapture noundef %qTS, ptr nocapture noundef %toTime, double noundef %maturity) unnamed_addr #3 align 2 personality ptr @__gxx_personality_v0 {
entry:
  %0 = load ptr, ptr %dividendSchedule, align 8, !tbaa !3
  store ptr %0, ptr %this, align 8, !tbaa !3
  %_M_finish.i.i.i.i = getelementptr inbounds nuw i8, ptr %this, i64 8
  %_M_finish3.i.i.i.i = getelementptr inbounds nuw i8, ptr %dividendSchedule, i64 8
  %1 = load ptr, ptr %_M_finish3.i.i.i.i, align 8, !tbaa !8
  store ptr %1, ptr %_M_finish.i.i.i.i, align 8, !tbaa !8
  %_M_end_of_storage.i.i.i.i = getelementptr inbounds nuw i8, ptr %this, i64 16
  %_M_end_of_storage4.i.i.i.i = getelementptr inbounds nuw i8, ptr %dividendSchedule, i64 16
  %2 = load ptr, ptr %_M_end_of_storage4.i.i.i.i, align 8, !tbaa !9
  store ptr %2, ptr %_M_end_of_storage.i.i.i.i, align 8, !tbaa !9
  tail call void @llvm.memset.p0.i64(ptr noundef nonnull align 8 dereferenceable(24) %dividendSchedule, i8 0, i64 24, i1 false)
  %rTS_ = getelementptr inbounds nuw i8, ptr %this, i64 24
  %3 = load ptr, ptr %rTS, align 8, !tbaa !10
  store ptr %3, ptr %rTS_, align 8, !tbaa !10
  %pn.i.i = getelementptr inbounds nuw i8, ptr %this, i64 32
  %pn3.i.i = getelementptr inbounds nuw i8, ptr %rTS, i64 8
  %4 = load ptr, ptr %pn3.i.i, align 8, !tbaa !13
  store ptr %4, ptr %pn.i.i, align 8, !tbaa !13
  tail call void @llvm.memset.p0.i64(ptr noundef nonnull align 8 dereferenceable(16) %rTS, i8 0, i64 16, i1 false)
  %qTS_ = getelementptr inbounds nuw i8, ptr %this, i64 40
  %5 = load ptr, ptr %qTS, align 8, !tbaa !10
  store ptr %5, ptr %qTS_, align 8, !tbaa !10
  %pn.i.i1 = getelementptr inbounds nuw i8, ptr %this, i64 48
  %pn3.i.i2 = getelementptr inbounds nuw i8, ptr %qTS, i64 8
  %6 = load ptr, ptr %pn3.i.i2, align 8, !tbaa !13
  store ptr %6, ptr %pn.i.i1, align 8, !tbaa !13
  tail call void @llvm.memset.p0.i64(ptr noundef nonnull align 8 dereferenceable(16) %qTS, i8 0, i64 16, i1 false)
  %toTime_ = getelementptr inbounds nuw i8, ptr %this, i64 56
  %_M_invoker.i = getelementptr inbounds nuw i8, ptr %this, i64 80
  %_M_invoker2.i = getelementptr inbounds nuw i8, ptr %toTime, i64 24
  tail call void @llvm.memset.p0.i64(ptr noundef nonnull align 8 dereferenceable(24) %toTime_, i8 0, i64 24, i1 false)
  %7 = load ptr, ptr %_M_invoker2.i, align 8, !tbaa !14
  store ptr %7, ptr %_M_invoker.i, align 8, !tbaa !14
  %_M_manager.i.i.i = getelementptr inbounds nuw i8, ptr %toTime, i64 16
  %8 = load ptr, ptr %_M_manager.i.i.i, align 8, !tbaa !17
  %tobool.not.i.i.not.i = icmp eq ptr %8, null
  br i1 %tobool.not.i.i.not.i, label %_ZNSt8functionIFdN8QuantLib4DateEEEC2EOS3_.exit, label %if.then.i

if.then.i:                                        ; preds = %entry
  %_M_manager.i.i = getelementptr inbounds nuw i8, ptr %this, i64 72
  tail call void @llvm.memcpy.p0.p0.i64(ptr noundef nonnull align 8 dereferenceable(16) %toTime_, ptr noundef nonnull align 8 dereferenceable(16) %toTime, i64 16, i1 false), !tbaa.struct !18
  %9 = load ptr, ptr %_M_manager.i.i.i, align 8, !tbaa !17
  store ptr %9, ptr %_M_manager.i.i, align 8, !tbaa !17
  tail call void @llvm.memset.p0.i64(ptr noundef nonnull align 8 dereferenceable(16) %_M_manager.i.i.i, i8 0, i64 16, i1 false)
  br label %_ZNSt8functionIFdN8QuantLib4DateEEEC2EOS3_.exit

_ZNSt8functionIFdN8QuantLib4DateEEEC2EOS3_.exit:  ; preds = %entry, %if.then.i
  %maturity_ = getelementptr inbounds nuw i8, ptr %this, i64 88
  store double %maturity, ptr %maturity_, align 8, !tbaa !20
  ret void
}